target datalayout = "e-m:e-p270:32:32-p271:32:32-p272:64:64-i64:64-i128:128-f80:128-n8:16:32:64-S128"
target triple = "x86_64-pc-linux-gnu"

%struct.ccan_list_head = type { %struct.ccan_list_node }
%struct.ccan_list_node = type { ptr, ptr }
%struct.rb_mutex_struct = type { ptr, ptr, %struct.ccan_list_head }

@.str.29 = private unnamed_addr constant [3 x i8] c"%s\00", align 1

; Function Attrs: nounwind sspstrong uwtable
define internal void @mutex_free(ptr noundef %0) #0 {
  %2 = alloca ptr, align 8
  %3 = alloca ptr, align 8
  %4 = alloca ptr, align 8
  store ptr %0, ptr %2, align 8, !tbaa !14
  call void @llvm.lifetime.start.p0(i64 8, ptr %3) #16
  %5 = load ptr, ptr %2, align 8, !tbaa !14
  store ptr %5, ptr %3, align 8, !tbaa !173
  %6 = load ptr, ptr %3, align 8, !tbaa !173
  %7 = getelementptr inbounds nuw %struct.rb_mutex_struct, ptr %6, i32 0, i32 0
  %8 = load ptr, ptr %7, align 8, !tbaa !174
  %9 = icmp ne ptr %8, null
  br i1 %9, label %10, label %25

10:                                               ; preds = %1
  call void @llvm.lifetime.start.p0(i64 8, ptr %4) #16
  %11 = load ptr, ptr %3, align 8, !tbaa !173
  %12 = load ptr, ptr %3, align 8, !tbaa !173
  %13 = getelementptr inbounds nuw %struct.rb_mutex_struct, ptr %12, i32 0, i32 0
  %14 = load ptr, ptr %13, align 8, !tbaa !174
  %15 = call ptr @rb_fiber_threadptr(ptr noundef %14)
  %16 = load ptr, ptr %3, align 8, !tbaa !173
  %17 = getelementptr inbounds nuw %struct.rb_mutex_struct, ptr %16, i32 0, i32 0
  %18 = load ptr, ptr %17, align 8, !tbaa !174
  %19 = call ptr @rb_mutex_unlock_th(ptr noundef %11, ptr noundef %15, ptr noundef %18)
  store ptr %19, ptr %4, align 8, !tbaa !17
  %20 = load ptr, ptr %4, align 8, !tbaa !17
  %21 = icmp ne ptr %20, null
  br i1 %21, label %22, label %24

22:                                               ; preds = %10
  %23 = load ptr, ptr %4, align 8, !tbaa !17
  call void (ptr, ...) @rb_bug(ptr noundef @.str.29, ptr noundef %23) #39
  unreachable

24:                                               ; preds = %10
  call void @llvm.lifetime.end.p0(i64 8, ptr %4) #16
  br label %25

25:                                               ; preds = %24, %1
  %26 = load ptr, ptr %2, align 8, !tbaa !14
  call void @ruby_xfree(ptr noundef %26)
  call void @llvm.lifetime.end.p0(i64 8, ptr %3) #16
  ret void
}