; Function Attrs: nounwind sspstrong uwtable
define internal void @mutex_free(ptr noundef %0) #0 {
  %2 = load ptr, ptr %0, align 8, !tbaa !174
  %.not = icmp eq ptr %2, null
  br i1 %.not, label %8, label %3

3:                                                ; preds = %1
  %4 = tail call ptr @rb_fiber_threadptr(ptr noundef nonnull %2) #17
  %5 = load ptr, ptr %0, align 8, !tbaa !174
  %6 = tail call fastcc ptr @rb_mutex_unlock_th(ptr noundef nonnull %0, ptr noundef %4, ptr noundef %5)
  %.not9 = icmp eq ptr %6, null
  br i1 %.not9, label %8, label %7

7:                                                ; preds = %3
  tail call void (ptr, ...) @rb_bug(ptr noundef nonnull @.str.29, ptr noundef nonnull %6) #47
  unreachable

8:                                                ; preds = %3, %1
  tail call void @ruby_xfree(ptr noundef nonnull %0) #17
  ret void
}